; Function Attrs: nounwind uwtable
define ptr @l_Lake_foldlUtf8M___rarg___lambda__2(i32 noundef %0, i8 noundef zeroext %1, i8 noundef zeroext %2, ptr noundef %3, ptr noundef %4, ptr noundef %5, ptr noundef %6) local_unnamed_addr #1 {
  %8 = trunc i32 %0 to i8
  %9 = and i8 %1, %8
  %10 = or i8 %2, %9
  %11 = zext i8 %10 to i64
  %12 = shl nuw nsw i64 %11, 1
  %13 = or disjoint i64 %12, 1
  %14 = inttoptr i64 %13 to ptr
  %15 = tail call ptr @lean_apply_2(ptr noundef %3, ptr noundef %6, ptr noundef nonnull %14) #7
  tail call void @lean_inc_heartbeat() #7
  %16 = tail call noalias ptr @mi_malloc_small(i64 noundef 32) #7
  %17 = icmp eq ptr %16, null
  br i1 %17, label %18, label %lean_alloc_closure.exit

18:                                               ; preds = %7
  tail call void @lean_internal_panic_out_of_memory() #8
  unreachable

lean_alloc_closure.exit:                          ; preds = %7
  %19 = getelementptr inbounds nuw i8, ptr %16, i64 4
  store i32 1, ptr %16, align 4, !tbaa !4
  store i32 -184549344, ptr %19, align 4
  %20 = getelementptr inbounds nuw i8, ptr %16, i64 8
  store ptr @l_Lake_foldlUtf8M___rarg___lambda__1, ptr %20, align 8, !tbaa !10
  %21 = getelementptr inbounds nuw i8, ptr %16, i64 16
  store i16 2, ptr %21, align 8, !tbaa !14
  %22 = getelementptr inbounds nuw i8, ptr %16, i64 18
  store i16 1, ptr %22, align 2, !tbaa !14
  %23 = getelementptr inbounds nuw i8, ptr %16, i64 24
  store ptr %4, ptr %23, align 8, !tbaa !10
  %24 = tail call ptr @lean_apply_4(ptr noundef %5, ptr noundef nonnull inttoptr (i64 1 to ptr), ptr noundef nonnull inttoptr (i64 1 to ptr), ptr noundef %15, ptr noundef nonnull %16) #7
  ret ptr %24
}